; Function Attrs: mustprogress uwtable
define dso_local noundef range(i32 -1, 1) i32 @_ZNK24btInverseDynamicsBullet313MultiBodyTree9InitCache14getInertiaDataEiPNS_11InertiaDataE(ptr noundef nonnull readonly align 8 captures(none) dereferenceable(172) %0, i32 noundef %1, ptr noundef writeonly captures(none) %2) local_unnamed_addr #3 align 2 {
  %4 = icmp slt i32 %1, 0
  %5 = getelementptr inbounds nuw i8, ptr %0, i64 4
  %6 = load i32, ptr %5, align 4
  %7 = icmp sgt i32 %1, %6
  %or.cond = select i1 %4, i1 true, i1 %7
  br i1 %or.cond, label %8, label %9

8:                                                ; preds = %3
  tail call void (ptr, ...) @b3OutputErrorMessageVarArgsInternal(ptr noundef nonnull @.str, ptr noundef nonnull @.str.1, i32 noundef 76)
  tail call void (ptr, ...) @b3OutputErrorMessageVarArgsInternal(ptr noundef nonnull @.str.4)
  br label %20

9:                                                ; preds = %3
  %10 = getelementptr inbounds nuw i8, ptr %0, i64 16
  %11 = load ptr, ptr %10, align 8, !tbaa !13
  %12 = zext nneg i32 %1 to i64
  %13 = getelementptr inbounds nuw %"struct.btInverseDynamicsBullet3::InertiaData", ptr %11, i64 %12
  tail call void @llvm.memcpy.p0.p0.i64(ptr noundef nonnull align 4 dereferenceable(68) %2, ptr noundef nonnull align 4 dereferenceable(68) %13, i64 20, i1 false)
  %14 = getelementptr inbounds nuw i8, ptr %2, i64 20
  %15 = getelementptr inbounds nuw i8, ptr %13, i64 20
  tail call void @llvm.memcpy.p0.p0.i64(ptr noundef nonnull align 4 dereferenceable(48) %14, ptr noundef nonnull align 4 dereferenceable(48) %15, i64 16, i1 false), !tbaa.struct !48
  %16 = getelementptr inbounds nuw i8, ptr %13, i64 36
  %17 = getelementptr inbounds nuw i8, ptr %2, i64 36
  tail call void @llvm.memcpy.p0.p0.i64(ptr noundef nonnull align 4 dereferenceable(16) %17, ptr noundef nonnull align 4 dereferenceable(16) %16, i64 16, i1 false), !tbaa.struct !48
  %18 = getelementptr inbounds nuw i8, ptr %13, i64 52
  %19 = getelementptr inbounds nuw i8, ptr %2, i64 52
  tail call void @llvm.memcpy.p0.p0.i64(ptr noundef nonnull align 4 dereferenceable(16) %19, ptr noundef nonnull align 4 dereferenceable(16) %18, i64 16, i1 false), !tbaa.struct !48
  br label %20

20:                                               ; preds = %9, %8
  %.0 = phi i32 [ -1, %8 ], [ 0, %9 ]
  ret i32 %.0
}